target datalayout = "e-m:e-p270:32:32-p271:32:32-p272:64:64-i64:64-i128:128-f80:128-n8:16:32:64-S128"
target triple = "x86_64-pc-linux-gnu"

%"class.colvarmodule::rvector" = type { double, double, double }
%class.colvarvalue = type { i32, double, %"class.colvarmodule::rvector", %"class.colvarmodule::quaternion", %"class.colvarmodule::vector1d", %"class.std::vector.10", %"class.std::vector.15", %"class.std::vector.15" }
%"class.colvarmodule::vector1d" = type { %"class.std::vector.5" }
%"class.std::vector.5" = type { %"struct.std::_Vector_base.6" }
%"struct.std::_Vector_base.6" = type { %"struct.std::_Vector_base<double, std::allocator<double>>::_Vector_impl" }
%"struct.std::_Vector_base<double, std::allocator<double>>::_Vector_impl" = type { %"struct.std::_Vector_base<double, std::allocator<double>>::_Vector_impl_data" }
%"struct.std::_Vector_base<double, std::allocator<double>>::_Vector_impl_data" = type { ptr, ptr, ptr }
%"class.std::vector.10" = type { %"struct.std::_Vector_base.11" }
%"struct.std::_Vector_base.11" = type { %"struct.std::_Vector_base<colvarvalue::Type, std::allocator<colvarvalue::Type>>::_Vector_impl" }
%"struct.std::_Vector_base<colvarvalue::Type, std::allocator<colvarvalue::Type>>::_Vector_impl" = type { %"struct.std::_Vector_base<colvarvalue::Type, std::allocator<colvarvalue::Type>>::_Vector_impl_data" }
%"struct.std::_Vector_base<colvarvalue::Type, std::allocator<colvarvalue::Type>>::_Vector_impl_data" = type { ptr, ptr, ptr }
%"class.std::vector.15" = type { %"struct.std::_Vector_base.16" }
%"struct.std::_Vector_base.16" = type { %"struct.std::_Vector_base<int, std::allocator<int>>::_Vector_impl" }
%"struct.std::_Vector_base<int, std::allocator<int>>::_Vector_impl" = type { %"struct.std::_Vector_base<int, std::allocator<int>>::_Vector_impl_data" }
%"struct.std::_Vector_base<int, std::allocator<int>>::_Vector_impl_data" = type { ptr, ptr, ptr }
%"class.colvarmodule::quaternion" = type { double, double, double, double }

; Function Attrs: mustprogress nounwind uwtable
define linkonce_odr noundef double @_ZN12colvarmodule4acosERKd(ptr noundef nonnull align 8 dereferenceable(8) %0) #1 comdat align 2 {
  %2 = alloca ptr, align 8
  store ptr %0, ptr %2, align 8
  %3 = load ptr, ptr %2, align 8
  %4 = load double, ptr %3, align 8
  %5 = call double @acos(double noundef %4) #14
  ret double %5
}

; Function Attrs: mustprogress uwtable
define linkonce_odr noundef double @_ZNK12colvarmodule10quaternion5dist2ERKS0_(ptr noundef nonnull align 8 dereferenceable(32) %0, ptr noundef nonnull align 8 dereferenceable(32) %1) #2 comdat align 2 {
  %3 = alloca double, align 8
  %4 = alloca ptr, align 8
  %5 = alloca ptr, align 8
  %6 = alloca double, align 8
  %7 = alloca double, align 8
  %8 = alloca double, align 8
  store ptr %0, ptr %4, align 8
  store ptr %1, ptr %5, align 8
  %9 = load ptr, ptr %4, align 8
  %10 = getelementptr inbounds %"class.colvarmodule::quaternion", ptr %9, i32 0, i32 0
  %11 = load double, ptr %10, align 8
  %12 = load ptr, ptr %5, align 8
  %13 = getelementptr inbounds %"class.colvarmodule::quaternion", ptr %12, i32 0, i32 0
  %14 = load double, ptr %13, align 8
  %15 = getelementptr inbounds %"class.colvarmodule::quaternion", ptr %9, i32 0, i32 1
  %16 = load double, ptr %15, align 8
  %17 = load ptr, ptr %5, align 8
  %18 = getelementptr inbounds %"class.colvarmodule::quaternion", ptr %17, i32 0, i32 1
  %19 = load double, ptr %18, align 8
  %20 = fmul double %16, %19
  %21 = call double @llvm.fmuladd.f64(double %11, double %14, double %20)
  %22 = getelementptr inbounds %"class.colvarmodule::quaternion", ptr %9, i32 0, i32 2
  %23 = load double, ptr %22, align 8
  %24 = load ptr, ptr %5, align 8
  %25 = getelementptr inbounds %"class.colvarmodule::quaternion", ptr %24, i32 0, i32 2
  %26 = load double, ptr %25, align 8
  %27 = call double @llvm.fmuladd.f64(double %23, double %26, double %21)
  %28 = getelementptr inbounds %"class.colvarmodule::quaternion", ptr %9, i32 0, i32 3
  %29 = load double, ptr %28, align 8
  %30 = load ptr, ptr %5, align 8
  %31 = getelementptr inbounds %"class.colvarmodule::quaternion", ptr %30, i32 0, i32 3
  %32 = load double, ptr %31, align 8
  %33 = call double @llvm.fmuladd.f64(double %29, double %32, double %27)
  store double %33, ptr %6, align 8
  %34 = load double, ptr %6, align 8
  %35 = fcmp ogt double %34, 1.000000e+00
  br i1 %35, label %36, label %37

36:                                               ; preds = %2
  br label %45

37:                                               ; preds = %2
  %38 = load double, ptr %6, align 8
  %39 = fcmp olt double %38, -1.000000e+00
  br i1 %39, label %40, label %41

40:                                               ; preds = %37
  br label %43

41:                                               ; preds = %37
  %42 = load double, ptr %6, align 8
  br label %43

43:                                               ; preds = %41, %40
  %44 = phi double [ -1.000000e+00, %40 ], [ %42, %41 ]
  br label %45

45:                                               ; preds = %43, %36
  %46 = phi double [ 1.000000e+00, %36 ], [ %44, %43 ]
  store double %46, ptr %8, align 8
  %47 = call noundef double @_ZN12colvarmodule4acosERKd(ptr noundef nonnull align 8 dereferenceable(8) %8)
  store double %47, ptr %7, align 8
  %48 = load double, ptr %6, align 8
  %49 = fcmp ogt double %48, 0.000000e+00
  br i1 %49, label %50, label %54

50:                                               ; preds = %45
  %51 = load double, ptr %7, align 8
  %52 = load double, ptr %7, align 8
  %53 = fmul double %51, %52
  store double %53, ptr %3, align 8
  br label %60

54:                                               ; preds = %45
  %55 = load double, ptr %7, align 8
  %56 = fsub double 0x400921FB54442D18, %55
  %57 = load double, ptr %7, align 8
  %58 = fsub double 0x400921FB54442D18, %57
  %59 = fmul double %56, %58
  store double %59, ptr %3, align 8
  br label %60

60:                                               ; preds = %54, %50
  %61 = load double, ptr %3, align 8
  ret double %61
}

; Function Attrs: mustprogress uwtable
define noundef double @_ZNK6colvar11orientation5dist2ERK11colvarvalueS3_(ptr noundef nonnull align 8 dereferenceable(2336) %0, ptr noundef nonnull align 8 dereferenceable(168) %1, ptr noundef nonnull align 8 dereferenceable(168) %2) unnamed_addr #2 align 2 {
  %4 = alloca ptr, align 8
  %5 = alloca ptr, align 8
  %6 = alloca ptr, align 8
  %7 = alloca %"class.colvarmodule::quaternion", align 8
  store ptr %0, ptr %4, align 8
  store ptr %1, ptr %5, align 8
  store ptr %2, ptr %6, align 8
  %8 = load ptr, ptr %5, align 8
  %9 = getelementptr inbounds %class.colvarvalue, ptr %8, i32 0, i32 3
  %10 = load ptr, ptr %6, align 8
  call void @_ZNK11colvarvaluecvN12colvarmodule10quaternionEEv(ptr dead_on_unwind writable sret(%"class.colvarmodule::quaternion") align 8 %7, ptr noundef nonnull align 8 dereferenceable(168) %10)
  %11 = call noundef double @_ZNK12colvarmodule10quaternion5dist2ERKS0_(ptr noundef nonnull align 8 dereferenceable(32) %9, ptr noundef nonnull align 8 dereferenceable(32) %7)
  ret double %11
}