; Function Attrs: mustprogress uwtable
define noundef double @_ZNK6colvar11orientation5dist2ERK11colvarvalueS3_(ptr nocapture nonnull readnone align 8 %0, ptr nocapture noundef nonnull readonly align 8 dereferenceable(168) %1, ptr noundef nonnull align 8 dereferenceable(168) %2) unnamed_addr #2 align 2 {
  %4 = alloca %"class.colvarmodule::quaternion", align 8
  %5 = getelementptr inbounds i8, ptr %1, i64 40
  call void @_ZNK11colvarvaluecvN12colvarmodule10quaternionEEv(ptr dead_on_unwind nonnull writable sret(%"class.colvarmodule::quaternion") align 8 %4, ptr noundef nonnull align 8 dereferenceable(168) %2)
  %6 = load double, ptr %5, align 8
  %7 = load double, ptr %4, align 8
  %8 = getelementptr inbounds i8, ptr %1, i64 48
  %9 = load double, ptr %8, align 8
  %10 = getelementptr inbounds i8, ptr %4, i64 8
  %11 = load double, ptr %10, align 8
  %12 = fmul double %9, %11
  %13 = call double @llvm.fmuladd.f64(double %6, double %7, double %12)
  %14 = getelementptr inbounds i8, ptr %1, i64 56
  %15 = load double, ptr %14, align 8
  %16 = getelementptr inbounds i8, ptr %4, i64 16
  %17 = load double, ptr %16, align 8
  %18 = call double @llvm.fmuladd.f64(double %15, double %17, double %13)
  %19 = getelementptr inbounds i8, ptr %1, i64 64
  %20 = load double, ptr %19, align 8
  %21 = getelementptr inbounds i8, ptr %4, i64 24
  %22 = load double, ptr %21, align 8
  %23 = call double @llvm.fmuladd.f64(double %20, double %22, double %18)
  %24 = fcmp ogt double %23, 1.000000e+00
  %25 = fcmp olt double %23, -1.000000e+00
  %26 = select i1 %25, double -1.000000e+00, double %23
  %27 = select i1 %24, double 1.000000e+00, double %26
  %28 = call noundef double @acos(double noundef %27) #23
  %29 = fcmp ogt double %23, 0.000000e+00
  %30 = fmul double %28, %28
  %31 = fsub double 0x400921FB54442D18, %28
  %32 = fmul double %31, %31
  %.0.i = select i1 %29, double %30, double %32
  ret double %.0.i
}